; Function Attrs: nounwind uwtable
define range(i32 -1, 1) i32 @H5DSwith_new_ref(i64 noundef %0, ptr noundef writeonly captures(address_is_null) %1) local_unnamed_addr #0 {
  %3 = alloca i8, align 1
  call void @llvm.lifetime.start.p0(i64 1, ptr nonnull %3) #10
  store i8 0, ptr %3, align 1, !tbaa !3
  %.not = icmp eq ptr %1, null
  br i1 %.not, label %10, label %4

4:                                                ; preds = %2
  %5 = call i32 @H5VLobject_is_native(i64 noundef %0, ptr noundef nonnull %3) #10
  %6 = icmp slt i32 %5, 0
  br i1 %6, label %10, label %7

7:                                                ; preds = %4
  %8 = load i8, ptr %3, align 1, !range !7
  %9 = xor i8 %8, 1
  store i8 %9, ptr %1, align 1, !tbaa !3
  br label %10

10:                                               ; preds = %4, %2, %7
  %.0 = phi i32 [ 0, %7 ], [ -1, %2 ], [ -1, %4 ]
  call void @llvm.lifetime.end.p0(i64 1, ptr nonnull %3) #10
  ret i32 %.0
}